target datalayout = "e-m:e-p270:32:32-p271:32:32-p272:64:64-i64:64-i128:128-f80:128-n8:16:32:64-S128"
target triple = "x86_64-pc-linux-gnu"

%class.Metadata = type { ptr }
%class.AccessFlags = type { i32 }
%class.Method = type { %class.Metadata, ptr, ptr, ptr, ptr, %class.AccessFlags, i32, %class.MethodFlags, i16, %class.JfrTraceFlag, ptr, ptr, ptr, ptr }
%class.MethodFlags = type { i32 }
%class.JfrTraceFlag = type { i16 }
%class.CompressedLineNumberReadStream = type { %class.CompressedReadStream.base, i32, i32, [4 x i8] }
%class.CompressedReadStream.base = type { %class.CompressedStream.base }
%class.CompressedStream.base = type <{ ptr, i32 }>
%class.methodHandle = type { ptr, ptr }

; Function Attrs: mustprogress nounwind uwtable
define linkonce_odr hidden noundef ptr @_ZNK6Method11constMethodEv(ptr noundef nonnull align 8 dereferenceable(88) %0) #1 comdat align 2 {
  %2 = alloca ptr, align 8
  store ptr %0, ptr %2, align 8
  %3 = load ptr, ptr %2, align 8
  %4 = getelementptr inbounds %class.Method, ptr %3, i32 0, i32 1
  %5 = load ptr, ptr %4, align 8
  ret ptr %5
}

; Function Attrs: mustprogress nounwind uwtable
define linkonce_odr hidden noundef ptr @_ZNK12methodHandle12non_null_objEv(ptr noundef nonnull align 8 dereferenceable(16) %0) #1 comdat align 2 {
  %2 = alloca ptr, align 8
  store ptr %0, ptr %2, align 8
  %3 = load ptr, ptr %2, align 8
  %4 = getelementptr inbounds %class.methodHandle, ptr %3, i32 0, i32 0
  %5 = load ptr, ptr %4, align 8
  ret ptr %5
}

; Function Attrs: mustprogress nounwind uwtable
define linkonce_odr hidden noundef ptr @_ZNK6Method27compressed_linenumber_tableEv(ptr noundef nonnull align 8 dereferenceable(88) %0) #1 comdat align 2 {
  %2 = alloca ptr, align 8
  store ptr %0, ptr %2, align 8
  %3 = load ptr, ptr %2, align 8
  %4 = call noundef ptr @_ZNK6Method11constMethodEv(ptr noundef nonnull align 8 dereferenceable(88) %3)
  %5 = call noundef ptr @_ZNK11ConstMethod27compressed_linenumber_tableEv(ptr noundef nonnull align 8 dereferenceable(52) %4)
  ret ptr %5
}

; Function Attrs: mustprogress nounwind uwtable
define linkonce_odr hidden noundef ptr @_ZNK12methodHandleptEv(ptr noundef nonnull align 8 dereferenceable(16) %0) #1 comdat align 2 {
  %2 = alloca ptr, align 8
  store ptr %0, ptr %2, align 8
  %3 = load ptr, ptr %2, align 8
  %4 = call noundef ptr @_ZNK12methodHandle12non_null_objEv(ptr noundef nonnull align 8 dereferenceable(16) %3)
  ret ptr %4
}

; Function Attrs: mustprogress nounwind uwtable
define hidden noundef zeroext i16 @_ZN27JvmtiClassFileReconstituter25line_number_table_entriesERK12methodHandle(ptr noundef nonnull align 8 dereferenceable(88) %0, ptr noundef nonnull align 8 dereferenceable(16) %1) #1 align 2 {
  %3 = alloca ptr, align 8
  %4 = alloca ptr, align 8
  %5 = alloca i16, align 2
  %6 = alloca %class.CompressedLineNumberReadStream, align 8
  store ptr %0, ptr %3, align 8
  store ptr %1, ptr %4, align 8
  store i16 0, ptr %5, align 2
  %7 = load ptr, ptr %4, align 8
  %8 = call noundef ptr @_ZNK12methodHandleptEv(ptr noundef nonnull align 8 dereferenceable(16) %7)
  %9 = call noundef ptr @_ZNK6Method27compressed_linenumber_tableEv(ptr noundef nonnull align 8 dereferenceable(88) %8)
  call void @_ZN30CompressedLineNumberReadStreamC1EPh(ptr noundef nonnull align 8 dereferenceable(20) %6, ptr noundef %9)
  br label %10

10:                                               ; preds = %12, %2
  %11 = call noundef zeroext i1 @_ZN30CompressedLineNumberReadStream9read_pairEv(ptr noundef nonnull align 8 dereferenceable(20) %6)
  br i1 %11, label %12, label %15

12:                                               ; preds = %10
  %13 = load i16, ptr %5, align 2
  %14 = add i16 %13, 1
  store i16 %14, ptr %5, align 2
  br label %10, !llvm.loop !10

15:                                               ; preds = %10
  %16 = load i16, ptr %5, align 2
  ret i16 %16
}