; Function Attrs: mustprogress nounwind uwtable
define hidden noundef zeroext i16 @_ZN27JvmtiClassFileReconstituter25line_number_table_entriesERK12methodHandle(ptr nocapture noundef nonnull readnone align 8 dereferenceable(88) %0, ptr nocapture noundef nonnull readonly align 8 dereferenceable(16) %1) local_unnamed_addr #0 align 2 {
  %3 = alloca %class.CompressedLineNumberReadStream, align 8
  %4 = load ptr, ptr %1, align 8
  %5 = getelementptr inbounds i8, ptr %4, i64 8
  %6 = load ptr, ptr %5, align 8
  %7 = tail call noundef ptr @_ZNK11ConstMethod27compressed_linenumber_tableEv(ptr noundef nonnull align 8 dereferenceable(52) %6) #12
  call void @_ZN30CompressedLineNumberReadStreamC1EPh(ptr noundef nonnull align 8 dereferenceable(20) %3, ptr noundef %7) #12
  br label %8

8:                                                ; preds = %8, %2
  %.0 = phi i16 [ 0, %2 ], [ %10, %8 ]
  %9 = call noundef zeroext i1 @_ZN30CompressedLineNumberReadStream9read_pairEv(ptr noundef nonnull align 8 dereferenceable(20) %3) #12
  %10 = add i16 %.0, 1
  br i1 %9, label %8, label %11, !llvm.loop !10

11:                                               ; preds = %8
  ret i16 %.0
}